; Function Attrs: mustprogress uwtable
define noundef zeroext i1 @_ZN32pxrInternal_v0_24__pxrReserved__11UsdGeomCube14_IsTypedSchemaEv() local_unnamed_addr #0 align 2 personality ptr @__gxx_personality_v0 {
  %1 = load atomic i8, ptr @_ZGVZN32pxrInternal_v0_24__pxrReserved__11UsdGeomCube14_IsTypedSchemaEvE7isTyped acquire, align 8
  %2 = icmp eq i8 %1, 0
  br i1 %2, label %3, label %11, !prof !4

3:                                                ; preds = %0
  %4 = tail call i32 @__cxa_guard_acquire(ptr nonnull @_ZGVZN32pxrInternal_v0_24__pxrReserved__11UsdGeomCube14_IsTypedSchemaEvE7isTyped) #15
  %.not = icmp eq i32 %4, 0
  br i1 %.not, label %11, label %5

5:                                                ; preds = %3
  %6 = invoke noundef nonnull align 8 dereferenceable(8) ptr @_ZN32pxrInternal_v0_24__pxrReserved__11UsdGeomCube16_GetStaticTfTypeEv()
          to label %7 unwind label %14

7:                                                ; preds = %5
  %8 = invoke noundef zeroext i1 @_ZNK32pxrInternal_v0_24__pxrReserved__6TfType3IsAINS_8UsdTypedEEEbv(ptr noundef nonnull align 8 dereferenceable(8) @_ZZN32pxrInternal_v0_24__pxrReserved__11UsdGeomCube16_GetStaticTfTypeEvE6tfType)
          to label %9 unwind label %14

9:                                                ; preds = %7
  %10 = zext i1 %8 to i8
  store i8 %10, ptr @_ZZN32pxrInternal_v0_24__pxrReserved__11UsdGeomCube14_IsTypedSchemaEvE7isTyped, align 1
  tail call void @__cxa_guard_release(ptr nonnull @_ZGVZN32pxrInternal_v0_24__pxrReserved__11UsdGeomCube14_IsTypedSchemaEvE7isTyped) #15
  br label %11

11:                                               ; preds = %9, %3, %0
  %12 = load i8, ptr @_ZZN32pxrInternal_v0_24__pxrReserved__11UsdGeomCube14_IsTypedSchemaEvE7isTyped, align 1
  %13 = trunc nuw i8 %12 to i1
  ret i1 %13

14:                                               ; preds = %7, %5
  %15 = landingpad { ptr, i32 }
          cleanup
  tail call void @__cxa_guard_abort(ptr nonnull @_ZGVZN32pxrInternal_v0_24__pxrReserved__11UsdGeomCube14_IsTypedSchemaEvE7isTyped) #15
  resume { ptr, i32 } %15
}